(dp0
S'gnrl_kl_loss'
p1
(lp2
F0.0
aF0.0
aF0.0
aF0.0
aF0.0
aF0.0
aF0.0
aF0.0
aF0.0
aF0.0
asS'gnrl_recon_loss'
p3
(lp4
F12.68509578704834
aF13.351296424865723
aF12.893033981323242
aF13.377652168273926
aF13.868698120117188
aF13.893293380737305
aF13.967421531677246
aF14.015402793884277
aF14.022953987121582
aF14.030623435974121
asS'train_KL_loss'
p5
(lp6
F0.0
aF0.0
aF0.0
aF0.0
aF0.0
aF0.0
aF0.0
aF0.0
aF0.0
aF0.0
asS'iter'
p7
(lp8
I500
aI1000
aI1500
aI2000
aI2500
aI3000
aI3500
aI4000
aI4500
aI5000
asS'train_recon_loss'
p9
(lp10
F11.659092903137207
aF8.986675262451172
aF6.5349812507629395
aF5.4874067306518555
aF5.2148637771606445
aF4.9990434646606445
aF4.626254081726074
aF1.7853723764419556
aF4.792851448059082
aF4.3648295402526855
asS'gnrlLoss'
p11
(lp12
F12.68509578704834
aF13.351296424865723
aF12.893033981323242
aF13.377652168273926
aF13.868698120117188
aF13.893293380737305
aF13.967421531677246
aF14.015402793884277
aF14.022953987121582
aF14.030623435974121
asS'trainLoss'
p13
(lp14
F11.659092903137207
aF8.986675262451172
aF6.5349812507629395
aF5.4874067306518555
aF5.2148637771606445
aF4.9990434646606445
aF4.626254081726074
aF1.7853723764419556
aF4.792851448059082
aF4.3648295402526855
as.