(dp0
S'gnrl_kl_loss'
p1
(lp2
F0.0
aF0.0
aF0.0
aF0.0
aF0.0
aF0.0
aF0.0
aF0.0
aF0.0
aF0.0
aF0.0
aF0.0
aF0.0
aF0.0
aF0.0
aF0.0
aF0.0
aF0.0
aF0.0
aF0.0
aF0.0
aF0.0
aF0.0
aF0.0
aF0.0
aF0.0
aF0.0
aF0.0
aF0.0
aF0.0
asS'gnrl_recon_loss'
p3
(lp4
F12.68509578704834
aF13.351296424865723
aF12.893033981323242
aF13.377652168273926
aF13.868698120117188
aF13.893293380737305
aF13.967421531677246
aF14.015402793884277
aF14.022953987121582
aF14.030623435974121
aF14.03304386138916
aF14.033909797668457
aF14.03463077545166
aF14.034683227539062
aF14.034738540649414
aF14.034759521484375
aF14.034760475158691
aF14.034760475158691
aF14.034760475158691
aF14.034760475158691
aF14.034760475158691
aF14.034760475158691
aF14.034761428833008
aF14.034760475158691
aF14.034760475158691
aF14.034760475158691
aF14.034760475158691
aF14.034760475158691
aF14.034760475158691
aF14.034760475158691
asS'train_KL_loss'
p5
(lp6
F0.0
aF0.0
aF0.0
aF0.0
aF0.0
aF0.0
aF0.0
aF0.0
aF0.0
aF0.0
aF0.0
aF0.0
aF0.0
aF0.0
aF0.0
aF0.0
aF0.0
aF0.0
aF0.0
aF0.0
aF0.0
aF0.0
aF0.0
aF0.0
aF0.0
aF0.0
aF0.0
aF0.0
aF0.0
aF0.0
asS'iter'
p7
(lp8
I500
aI1000
aI1500
aI2000
aI2500
aI3000
aI3500
aI4000
aI4500
aI5000
aI5500
aI6000
aI6500
aI7000
aI7500
aI8000
aI8500
aI9000
aI9500
aI10000
aI10500
aI11000
aI11500
aI12000
aI12500
aI13000
aI13500
aI14000
aI14500
aI15000
asS'train_recon_loss'
p9
(lp10
F11.659092903137207
aF8.986675262451172
aF6.5349812507629395
aF5.4874067306518555
aF5.2148637771606445
aF4.9990434646606445
aF4.626254081726074
aF1.7853723764419556
aF4.792851448059082
aF4.3648295402526855
aF4.735779762268066
aF4.607414245605469
aF4.5236053466796875
aF4.79083251953125
aF4.541487216949463
aF1.7755568027496338
aF4.778584957122803
aF4.359155654907227
aF4.733942985534668
aF4.606542587280273
aF4.5234174728393555
aF4.79072380065918
aF4.541454315185547
aF1.7755563259124756
aF4.778583526611328
aF4.359155654907227
aF4.733942985534668
aF4.606542110443115
aF4.5234174728393555
aF4.79072380065918
asS'gnrlLoss'
p11
(lp12
F12.68509578704834
aF13.351296424865723
aF12.893033981323242
aF13.377652168273926
aF13.868698120117188
aF13.893293380737305
aF13.967421531677246
aF14.015402793884277
aF14.022953987121582
aF14.030623435974121
aF14.03304386138916
aF14.033909797668457
aF14.03463077545166
aF14.034683227539062
aF14.034738540649414
aF14.034759521484375
aF14.034760475158691
aF14.034760475158691
aF14.034760475158691
aF14.034760475158691
aF14.034760475158691
aF14.034760475158691
aF14.034761428833008
aF14.034760475158691
aF14.034760475158691
aF14.034760475158691
aF14.034760475158691
aF14.034760475158691
aF14.034760475158691
aF14.034760475158691
asS'trainLoss'
p13
(lp14
F11.659092903137207
aF8.986675262451172
aF6.5349812507629395
aF5.4874067306518555
aF5.2148637771606445
aF4.9990434646606445
aF4.626254081726074
aF1.7853723764419556
aF4.792851448059082
aF4.3648295402526855
aF4.735779762268066
aF4.607414245605469
aF4.5236053466796875
aF4.79083251953125
aF4.541487216949463
aF1.7755568027496338
aF4.778584957122803
aF4.359155654907227
aF4.733942985534668
aF4.606542587280273
aF4.5234174728393555
aF4.79072380065918
aF4.541454315185547
aF1.7755563259124756
aF4.778583526611328
aF4.359155654907227
aF4.733942985534668
aF4.606542110443115
aF4.5234174728393555
aF4.79072380065918
as.